
crt.elf:     file format elf32-avr

Sections:
Idx Name          Size      VMA       LMA       File off  Algn
  0 .data         000000ca  00800100  00000acc  00000b40  2**0
                  CONTENTS, ALLOC, LOAD, DATA
  1 .text         00000acc  00000000  00000000  00000074  2**1
                  CONTENTS, ALLOC, LOAD, READONLY, CODE
  2 .comment      00000030  00000000  00000000  00000c0a  2**0
                  CONTENTS, READONLY
  3 .note.gnu.avr.deviceinfo 00000040  00000000  00000000  00000c3c  2**2
                  CONTENTS, READONLY
  4 .debug_aranges 00000048  00000000  00000000  00000c7c  2**0
                  CONTENTS, READONLY, DEBUGGING
  5 .debug_info   00000949  00000000  00000000  00000cc4  2**0
                  CONTENTS, READONLY, DEBUGGING
  6 .debug_abbrev 00000711  00000000  00000000  0000160d  2**0
                  CONTENTS, READONLY, DEBUGGING
  7 .debug_line   00000355  00000000  00000000  00001d1e  2**0
                  CONTENTS, READONLY, DEBUGGING
  8 .debug_frame  000000b4  00000000  00000000  00002074  2**2
                  CONTENTS, READONLY, DEBUGGING
  9 .debug_str    0000043b  00000000  00000000  00002128  2**0
                  CONTENTS, READONLY, DEBUGGING
 10 .debug_loc    00000390  00000000  00000000  00002563  2**0
                  CONTENTS, READONLY, DEBUGGING
 11 .debug_ranges 00000038  00000000  00000000  000028f3  2**0
                  CONTENTS, READONLY, DEBUGGING

Disassembly of section .text:

00000000 <__vectors>:
   0:	0c 94 bf 04 	jmp	0x97e	; 0x97e <__ctors_end>
   4:	0c 94 d4 04 	jmp	0x9a8	; 0x9a8 <__bad_interrupt>
   8:	0c 94 d4 04 	jmp	0x9a8	; 0x9a8 <__bad_interrupt>
   c:	0c 94 d4 04 	jmp	0x9a8	; 0x9a8 <__bad_interrupt>
  10:	0c 94 d4 04 	jmp	0x9a8	; 0x9a8 <__bad_interrupt>
  14:	0c 94 d4 04 	jmp	0x9a8	; 0x9a8 <__bad_interrupt>
  18:	0c 94 d4 04 	jmp	0x9a8	; 0x9a8 <__bad_interrupt>
  1c:	0c 94 d4 04 	jmp	0x9a8	; 0x9a8 <__bad_interrupt>
  20:	0c 94 d4 04 	jmp	0x9a8	; 0x9a8 <__bad_interrupt>
  24:	0c 94 d4 04 	jmp	0x9a8	; 0x9a8 <__bad_interrupt>
  28:	0c 94 d4 04 	jmp	0x9a8	; 0x9a8 <__bad_interrupt>
  2c:	0c 94 d4 04 	jmp	0x9a8	; 0x9a8 <__bad_interrupt>
  30:	0c 94 d4 04 	jmp	0x9a8	; 0x9a8 <__bad_interrupt>
  34:	0c 94 d4 04 	jmp	0x9a8	; 0x9a8 <__bad_interrupt>
  38:	0c 94 d4 04 	jmp	0x9a8	; 0x9a8 <__bad_interrupt>
  3c:	0c 94 d4 04 	jmp	0x9a8	; 0x9a8 <__bad_interrupt>
  40:	0c 94 d4 04 	jmp	0x9a8	; 0x9a8 <__bad_interrupt>
  44:	0c 94 d4 04 	jmp	0x9a8	; 0x9a8 <__bad_interrupt>
  48:	0c 94 d4 04 	jmp	0x9a8	; 0x9a8 <__bad_interrupt>
  4c:	0c 94 d4 04 	jmp	0x9a8	; 0x9a8 <__bad_interrupt>
  50:	0c 94 d4 04 	jmp	0x9a8	; 0x9a8 <__bad_interrupt>
  54:	0c 94 d4 04 	jmp	0x9a8	; 0x9a8 <__bad_interrupt>
  58:	0c 94 d4 04 	jmp	0x9a8	; 0x9a8 <__bad_interrupt>
  5c:	0c 94 d4 04 	jmp	0x9a8	; 0x9a8 <__bad_interrupt>
  60:	0c 94 d4 04 	jmp	0x9a8	; 0x9a8 <__bad_interrupt>
  64:	0c 94 d4 04 	jmp	0x9a8	; 0x9a8 <__bad_interrupt>

00000068 <__trampolines_end>:
  68:	00 06       	cpc	r0, r16
  6a:	04 00       	.word	0x0004	; ????
  6c:	04 02       	muls	r16, r20
  6e:	04 04       	cpc	r0, r4
  70:	04 06       	cpc	r0, r20
  72:	04 08       	sbc	r0, r4
  74:	04 0c       	add	r0, r4
  76:	06 02       	muls	r16, r22
  78:	00 02       	muls	r16, r16
  7a:	02 02       	muls	r16, r18
  7c:	04 06       	cpc	r0, r20
  7e:	04 06       	cpc	r0, r20
  80:	02 06       	cpc	r0, r18
  82:	00 14       	cp	r0, r0
  84:	00 04       	cpc	r0, r0
  86:	02 04       	cpc	r0, r2
  88:	02 02       	muls	r16, r18
  8a:	02 00       	.word	0x0002	; ????
  8c:	06 00       	.word	0x0006	; ????
  8e:	06 02       	muls	r16, r22
  90:	06 04       	cpc	r0, r6
  92:	04 04       	cpc	r0, r4
  94:	02 06       	cpc	r0, r18
  96:	02 08       	sbc	r0, r2
  98:	00 08       	sbc	r0, r0
  9a:	02 0a       	sbc	r0, r18
  9c:	02 0c       	add	r0, r2
  9e:	06 0c       	add	r0, r6
  a0:	06 0a       	sbc	r0, r22
  a2:	06 08       	sbc	r0, r6
  a4:	04 08       	sbc	r0, r4
  a6:	06 06       	cpc	r0, r22
  a8:	08 04       	cpc	r0, r8
  aa:	08 08       	sbc	r0, r8
  ac:	11 00       	.word	0x0011	; ????
  ae:	04 02       	muls	r16, r20
  b0:	02 04       	cpc	r0, r2
  b2:	02 04       	cpc	r0, r2
  b4:	00 06       	cpc	r0, r16
  b6:	02 08       	sbc	r0, r2
  b8:	02 04       	cpc	r0, r2
  ba:	04 04       	cpc	r0, r4
  bc:	06 02       	muls	r16, r22
  be:	06 04       	cpc	r0, r6
  c0:	08 04       	cpc	r0, r8
  c2:	0a 02       	muls	r16, r26
  c4:	0a 00       	.word	0x000a	; ????
  c6:	0a 04       	cpc	r0, r10
  c8:	0c 06       	cpc	r0, r28
  ca:	0a 08       	sbc	r0, r10
  cc:	08 06       	cpc	r0, r24
  ce:	06 0d       	add	r16, r6
  d0:	00 00       	nop
  d2:	00 02       	muls	r16, r16
  d4:	02 02       	muls	r16, r18
  d6:	02 00       	.word	0x0002	; ????
  d8:	06 04       	cpc	r0, r6
  da:	04 06       	cpc	r0, r20
  dc:	02 08       	sbc	r0, r2
  de:	00 0a       	sbc	r0, r16
  e0:	06 0a       	sbc	r0, r22
  e2:	06 0c       	add	r0, r6
  e4:	08 0c       	add	r0, r8
  e6:	08 0a       	sbc	r0, r24
  e8:	08 02       	muls	r16, r24
  ea:	0f 00       	.word	0x000f	; ????
  ec:	02 00       	.word	0x0002	; ????
  ee:	04 02       	muls	r16, r20
  f0:	06 00       	.word	0x0006	; ????
  f2:	08 00       	.word	0x0008	; ????
  f4:	0a 02       	muls	r16, r26
  f6:	0c 04       	cpc	r0, r12
  f8:	0c 06       	cpc	r0, r28
  fa:	0a 04       	cpc	r0, r10
  fc:	08 04       	cpc	r0, r8
  fe:	04 06       	cpc	r0, r20
 100:	02 04       	cpc	r0, r2
 102:	00 02       	muls	r16, r16
 104:	00 08       	sbc	r0, r0
 106:	08 08       	sbc	r0, r8
 108:	0c 04       	cpc	r0, r12
 10a:	02 00       	.word	0x0002	; ????
 10c:	04 00       	.word	0x0004	; ????
 10e:	04 02       	muls	r16, r20
 110:	02 04       	cpc	r0, r2
 112:	07 02       	muls	r16, r23
 114:	04 02       	muls	r16, r20
 116:	06 02       	muls	r16, r22
 118:	08 04       	cpc	r0, r8
 11a:	0a 06       	cpc	r0, r26
 11c:	0c 04       	cpc	r0, r12
 11e:	02 06       	cpc	r0, r18
 120:	00 07       	cpc	r16, r16
 122:	02 00       	.word	0x0002	; ????
 124:	04 02       	muls	r16, r20
 126:	06 04       	cpc	r0, r6
 128:	06 06       	cpc	r0, r22
 12a:	06 08       	sbc	r0, r6
 12c:	04 0a       	sbc	r0, r20
 12e:	02 0c       	add	r0, r2
 130:	0b 00       	.word	0x000b	; ????
 132:	04 02       	muls	r16, r20
 134:	06 04       	cpc	r0, r6
 136:	06 04       	cpc	r0, r6
 138:	04 04       	cpc	r0, r4
 13a:	02 06       	cpc	r0, r18
 13c:	06 04       	cpc	r0, r6
 13e:	08 04       	cpc	r0, r8
 140:	0a 00       	.word	0x000a	; ????
 142:	08 08       	sbc	r0, r8
 144:	08 08       	sbc	r0, r8
 146:	04 09       	sbc	r16, r4
 148:	00 06       	cpc	r0, r16
 14a:	02 06       	cpc	r0, r18
 14c:	04 06       	cpc	r0, r20
 14e:	04 04       	cpc	r0, r4
 150:	04 02       	muls	r16, r20
 152:	06 06       	cpc	r0, r22
 154:	08 06       	cpc	r0, r24
 156:	04 08       	sbc	r0, r4
 158:	04 0a       	sbc	r0, r20
 15a:	04 02       	muls	r16, r20
 15c:	08 04       	cpc	r0, r8
 15e:	08 04       	cpc	r0, r8
 160:	0a 02       	muls	r16, r26
 162:	0c 05       	cpc	r16, r12
 164:	00 06       	cpc	r0, r16
 166:	02 06       	cpc	r0, r18
 168:	04 06       	cpc	r0, r20
 16a:	06 06       	cpc	r0, r22
 16c:	08 06       	cpc	r0, r24
 16e:	04 02       	muls	r16, r20
 170:	0a 02       	muls	r16, r26
 172:	0c 04       	cpc	r0, r12
 174:	0c 04       	cpc	r0, r12
 176:	0a 05       	cpc	r16, r10
 178:	00 0a       	sbc	r0, r16
 17a:	02 08       	sbc	r0, r2
 17c:	04 06       	cpc	r0, r20
 17e:	06 04       	cpc	r0, r6
 180:	08 02       	muls	r16, r24
 182:	13 00       	.word	0x0013	; ????
 184:	02 00       	.word	0x0002	; ????
 186:	04 00       	.word	0x0004	; ????
 188:	06 00       	.word	0x0006	; ????
 18a:	08 00       	.word	0x0008	; ????
 18c:	0a 02       	muls	r16, r26
 18e:	08 04       	cpc	r0, r8
 190:	06 06       	cpc	r0, r22
 192:	04 08       	sbc	r0, r4
 194:	04 08       	sbc	r0, r4
 196:	02 06       	cpc	r0, r18
 198:	00 04       	cpc	r0, r0
 19a:	00 02       	muls	r16, r16
 19c:	00 08       	sbc	r0, r0
 19e:	06 08       	sbc	r0, r6
 1a0:	08 08       	sbc	r0, r8
 1a2:	0a 06       	cpc	r0, r26
 1a4:	0c 04       	cpc	r0, r12
 1a6:	0c 02       	muls	r16, r28
 1a8:	0c 0a       	sbc	r0, r28
 1aa:	02 02       	muls	r16, r18
 1ac:	04 02       	muls	r16, r20
 1ae:	04 00       	.word	0x0004	; ????
 1b0:	04 04       	cpc	r0, r4
 1b2:	04 06       	cpc	r0, r20
 1b4:	04 08       	sbc	r0, r4
 1b6:	04 0a       	sbc	r0, r20
 1b8:	04 0c       	add	r0, r4
 1ba:	02 0c       	add	r0, r2
 1bc:	06 0c       	add	r0, r6
 1be:	0e 00       	.word	0x000e	; ????
 1c0:	02 02       	muls	r16, r18
 1c2:	00 04       	cpc	r0, r0
 1c4:	00 06       	cpc	r0, r16
 1c6:	00 08       	sbc	r0, r0
 1c8:	02 08       	sbc	r0, r2
 1ca:	04 06       	cpc	r0, r20
 1cc:	06 04       	cpc	r0, r6
 1ce:	08 02       	muls	r16, r24
 1d0:	0a 02       	muls	r16, r26
 1d2:	0c 00       	.word	0x000c	; ????
 1d4:	0c 04       	cpc	r0, r12
 1d6:	0c 06       	cpc	r0, r28
 1d8:	0c 08       	sbc	r0, r12
 1da:	0c 0e       	add	r0, r28
 1dc:	00 00       	nop
 1de:	02 00       	.word	0x0002	; ????
 1e0:	04 00       	.word	0x0004	; ????
 1e2:	06 00       	.word	0x0006	; ????
 1e4:	06 02       	muls	r16, r22
 1e6:	04 04       	cpc	r0, r4
 1e8:	06 06       	cpc	r0, r22
 1ea:	08 08       	sbc	r0, r8
 1ec:	08 0a       	sbc	r0, r24
 1ee:	06 0c       	add	r0, r6
 1f0:	04 0c       	add	r0, r4
 1f2:	02 0c       	add	r0, r2
 1f4:	00 0a       	sbc	r0, r16
 1f6:	08 00       	.word	0x0008	; ????
 1f8:	0e 00       	.word	0x000e	; ????
 1fa:	06 00       	.word	0x0006	; ????
 1fc:	08 02       	muls	r16, r24
 1fe:	08 04       	cpc	r0, r8
 200:	08 06       	cpc	r0, r24
 202:	08 06       	cpc	r0, r24
 204:	06 06       	cpc	r0, r22
 206:	04 06       	cpc	r0, r20
 208:	02 04       	cpc	r0, r2
 20a:	02 02       	muls	r16, r18
 20c:	04 06       	cpc	r0, r20
 20e:	00 08       	sbc	r0, r0
 210:	08 06       	cpc	r0, r24
 212:	0a 06       	cpc	r0, r26
 214:	0c 11       	cpse	r16, r12
 216:	00 00       	nop
 218:	00 02       	muls	r16, r16
 21a:	00 04       	cpc	r0, r0
 21c:	02 04       	cpc	r0, r2
 21e:	04 04       	cpc	r0, r4
 220:	06 04       	cpc	r0, r6
 222:	08 06       	cpc	r0, r24
 224:	08 08       	sbc	r0, r8
 226:	08 0a       	sbc	r0, r24
 228:	06 0c       	add	r0, r6
 22a:	04 0c       	add	r0, r4
 22c:	02 0c       	add	r0, r2
 22e:	00 0a       	sbc	r0, r16
 230:	02 00       	.word	0x0002	; ????
 232:	04 00       	.word	0x0004	; ????
 234:	06 00       	.word	0x0006	; ????
 236:	08 00       	.word	0x0008	; ????
 238:	0f 00       	.word	0x000f	; ????
 23a:	04 00       	.word	0x0004	; ????
 23c:	06 00       	.word	0x0006	; ????
 23e:	08 00       	.word	0x0008	; ????
 240:	0a 02       	muls	r16, r26
 242:	0c 04       	cpc	r0, r12
 244:	0c 06       	cpc	r0, r28
 246:	0c 08       	sbc	r0, r12
 248:	0a 08       	sbc	r0, r10
 24a:	08 06       	cpc	r0, r24
 24c:	06 04       	cpc	r0, r6
 24e:	06 02       	muls	r16, r22
 250:	06 02       	muls	r16, r22
 252:	02 04       	cpc	r0, r2
 254:	00 06       	cpc	r0, r16
 256:	00 0b       	sbc	r16, r16
 258:	00 00       	nop
 25a:	02 00       	.word	0x0002	; ????
 25c:	04 00       	.word	0x0004	; ????
 25e:	06 00       	.word	0x0006	; ????
 260:	08 00       	.word	0x0008	; ????
 262:	08 02       	muls	r16, r24
 264:	06 04       	cpc	r0, r6
 266:	04 06       	cpc	r0, r20
 268:	02 08       	sbc	r0, r2
 26a:	02 0a       	sbc	r0, r18
 26c:	02 0c       	add	r0, r2
 26e:	11 00       	.word	0x0011	; ????
 270:	02 00       	.word	0x0002	; ????
 272:	04 02       	muls	r16, r20
 274:	06 04       	cpc	r0, r6
 276:	06 06       	cpc	r0, r22
 278:	06 08       	sbc	r0, r6
 27a:	04 08       	sbc	r0, r4
 27c:	02 06       	cpc	r0, r18
 27e:	00 04       	cpc	r0, r0
 280:	00 02       	muls	r16, r16
 282:	00 00       	nop
 284:	08 00       	.word	0x0008	; ????
 286:	0a 02       	muls	r16, r26
 288:	0c 04       	cpc	r0, r12
 28a:	0c 06       	cpc	r0, r28
 28c:	0c 08       	sbc	r0, r12
 28e:	0a 08       	sbc	r0, r10
 290:	08 0f       	add	r16, r24
 292:	00 02       	muls	r16, r16
 294:	00 04       	cpc	r0, r0
 296:	02 06       	cpc	r0, r18
 298:	04 06       	cpc	r0, r20
 29a:	06 06       	cpc	r0, r22
 29c:	08 06       	cpc	r0, r24
 29e:	08 04       	cpc	r0, r8
 2a0:	08 02       	muls	r16, r24
 2a2:	06 00       	.word	0x0006	; ????
 2a4:	04 00       	.word	0x0004	; ????
 2a6:	02 00       	.word	0x0002	; ????
 2a8:	08 08       	sbc	r0, r8
 2aa:	06 0a       	sbc	r0, r22
 2ac:	04 0c       	add	r0, r4
 2ae:	02 0c       	add	r0, r2
 2b0:	08 02       	muls	r16, r24
 2b2:	02 02       	muls	r16, r18
 2b4:	04 04       	cpc	r0, r4
 2b6:	04 04       	cpc	r0, r4
 2b8:	02 04       	cpc	r0, r2
 2ba:	08 02       	muls	r16, r24
 2bc:	08 02       	muls	r16, r24
 2be:	0a 04       	cpc	r0, r10
 2c0:	0a 08       	sbc	r0, r10
 2c2:	02 02       	muls	r16, r18
 2c4:	02 04       	cpc	r0, r2
 2c6:	04 04       	cpc	r0, r4
 2c8:	04 02       	muls	r16, r20
 2ca:	04 08       	sbc	r0, r4
 2cc:	02 08       	sbc	r0, r2
 2ce:	04 0a       	sbc	r0, r20
 2d0:	02 0c       	add	r0, r2
 2d2:	07 00       	.word	0x0007	; ????
 2d4:	06 02       	muls	r16, r22
 2d6:	04 04       	cpc	r0, r4
 2d8:	02 06       	cpc	r0, r18
 2da:	00 02       	muls	r16, r16
 2dc:	08 04       	cpc	r0, r8
 2de:	0a 06       	cpc	r0, r26
 2e0:	0c 0a       	sbc	r0, r28
 2e2:	00 04       	cpc	r0, r0
 2e4:	02 04       	cpc	r0, r2
 2e6:	04 04       	cpc	r0, r4
 2e8:	06 04       	cpc	r0, r6
 2ea:	08 04       	cpc	r0, r8
 2ec:	08 08       	sbc	r0, r8
 2ee:	06 08       	sbc	r0, r6
 2f0:	04 08       	sbc	r0, r4
 2f2:	02 08       	sbc	r0, r2
 2f4:	00 08       	sbc	r0, r0
 2f6:	07 02       	muls	r16, r23
 2f8:	00 04       	cpc	r0, r0
 2fa:	02 06       	cpc	r0, r18
 2fc:	04 08       	sbc	r0, r4
 2fe:	06 06       	cpc	r0, r22
 300:	08 04       	cpc	r0, r8
 302:	0a 02       	muls	r16, r26
 304:	0c 09       	sbc	r16, r12
 306:	00 02       	muls	r16, r16
 308:	02 00       	.word	0x0002	; ????
 30a:	04 00       	.word	0x0004	; ????
 30c:	06 00       	.word	0x0006	; ????
 30e:	08 02       	muls	r16, r24
 310:	08 04       	cpc	r0, r8
 312:	06 06       	cpc	r0, r22
 314:	04 08       	sbc	r0, r4
 316:	04 0c       	add	r0, r4
 318:	12 00       	.word	0x0012	; ????
 31a:	02 02       	muls	r16, r18
 31c:	00 04       	cpc	r0, r0
 31e:	00 06       	cpc	r0, r16
 320:	00 08       	sbc	r0, r0
 322:	02 08       	sbc	r0, r2
 324:	04 08       	sbc	r0, r4
 326:	06 08       	sbc	r0, r6
 328:	08 08       	sbc	r0, r8
 32a:	0a 06       	cpc	r0, r26
 32c:	0c 04       	cpc	r0, r12
 32e:	0c 02       	muls	r16, r28
 330:	0c 00       	.word	0x000c	; ????
 332:	0a 00       	.word	0x000a	; ????
 334:	08 02       	muls	r16, r24
 336:	06 04       	cpc	r0, r6
 338:	06 04       	cpc	r0, r6
 33a:	08 04       	cpc	r0, r8
 33c:	0a 12       	cpse	r0, r26
 33e:	00 02       	muls	r16, r16
 340:	00 04       	cpc	r0, r0
 342:	00 06       	cpc	r0, r16
 344:	00 08       	sbc	r0, r0
 346:	00 0a       	sbc	r0, r16
 348:	00 0c       	add	r0, r0
 34a:	02 08       	sbc	r0, r2
 34c:	04 08       	sbc	r0, r4
 34e:	06 08       	sbc	r0, r6
 350:	08 08       	sbc	r0, r8
 352:	08 06       	cpc	r0, r24
 354:	08 04       	cpc	r0, r8
 356:	08 02       	muls	r16, r24
 358:	06 00       	.word	0x0006	; ????
 35a:	04 00       	.word	0x0004	; ????
 35c:	02 00       	.word	0x0002	; ????
 35e:	08 0a       	sbc	r0, r24
 360:	08 0c       	add	r0, r8
 362:	14 00       	.word	0x0014	; ????
 364:	00 00       	nop
 366:	02 00       	.word	0x0002	; ????
 368:	04 00       	.word	0x0004	; ????
 36a:	06 00       	.word	0x0006	; ????
 36c:	08 00       	.word	0x0008	; ????
 36e:	0a 00       	.word	0x000a	; ????
 370:	0c 02       	muls	r16, r28
 372:	0c 04       	cpc	r0, r12
 374:	0c 06       	cpc	r0, r28
 376:	0c 08       	sbc	r0, r12
 378:	0a 08       	sbc	r0, r10
 37a:	08 06       	cpc	r0, r24
 37c:	06 04       	cpc	r0, r6
 37e:	06 02       	muls	r16, r22
 380:	06 02       	muls	r16, r22
 382:	00 04       	cpc	r0, r0
 384:	00 06       	cpc	r0, r16
 386:	00 08       	sbc	r0, r0
 388:	02 08       	sbc	r0, r2
 38a:	04 0d       	add	r16, r4
 38c:	00 02       	muls	r16, r16
 38e:	00 04       	cpc	r0, r0
 390:	00 06       	cpc	r0, r16
 392:	00 08       	sbc	r0, r0
 394:	00 0a       	sbc	r0, r16
 396:	02 0c       	add	r0, r2
 398:	04 0c       	add	r0, r4
 39a:	06 0c       	add	r0, r6
 39c:	08 0a       	sbc	r0, r24
 39e:	08 02       	muls	r16, r24
 3a0:	06 00       	.word	0x0006	; ????
 3a2:	04 00       	.word	0x0004	; ????
 3a4:	02 00       	.word	0x0002	; ????
 3a6:	10 00       	.word	0x0010	; ????
 3a8:	00 00       	nop
 3aa:	02 00       	.word	0x0002	; ????
 3ac:	04 00       	.word	0x0004	; ????
 3ae:	06 00       	.word	0x0006	; ????
 3b0:	08 00       	.word	0x0008	; ????
 3b2:	0a 00       	.word	0x000a	; ????
 3b4:	0c 02       	muls	r16, r28
 3b6:	0c 04       	cpc	r0, r12
 3b8:	0c 06       	cpc	r0, r28
 3ba:	0a 08       	sbc	r0, r10
 3bc:	08 08       	sbc	r0, r8
 3be:	06 08       	sbc	r0, r6
 3c0:	04 06       	cpc	r0, r20
 3c2:	02 04       	cpc	r0, r2
 3c4:	00 02       	muls	r16, r16
 3c6:	00 12       	cpse	r0, r16
 3c8:	00 00       	nop
 3ca:	00 02       	muls	r16, r16
 3cc:	00 04       	cpc	r0, r0
 3ce:	00 06       	cpc	r0, r16
 3d0:	00 08       	sbc	r0, r0
 3d2:	00 0a       	sbc	r0, r16
 3d4:	00 0c       	add	r0, r0
 3d6:	02 0c       	add	r0, r2
 3d8:	04 0c       	add	r0, r4
 3da:	06 0c       	add	r0, r6
 3dc:	08 0c       	add	r0, r8
 3de:	06 06       	cpc	r0, r22
 3e0:	04 06       	cpc	r0, r20
 3e2:	02 06       	cpc	r0, r18
 3e4:	02 00       	.word	0x0002	; ????
 3e6:	04 00       	.word	0x0004	; ????
 3e8:	06 00       	.word	0x0006	; ????
 3ea:	08 00       	.word	0x0008	; ????
 3ec:	0e 00       	.word	0x000e	; ????
 3ee:	00 00       	nop
 3f0:	02 00       	.word	0x0002	; ????
 3f2:	04 00       	.word	0x0004	; ????
 3f4:	06 00       	.word	0x0006	; ????
 3f6:	08 00       	.word	0x0008	; ????
 3f8:	0a 00       	.word	0x000a	; ????
 3fa:	0c 02       	muls	r16, r28
 3fc:	06 04       	cpc	r0, r6
 3fe:	06 06       	cpc	r0, r22
 400:	06 06       	cpc	r0, r22
 402:	00 04       	cpc	r0, r0
 404:	00 02       	muls	r16, r16
 406:	00 08       	sbc	r0, r0
 408:	00 12       	cpse	r0, r16
 40a:	00 02       	muls	r16, r16
 40c:	00 04       	cpc	r0, r0
 40e:	00 06       	cpc	r0, r16
 410:	00 08       	sbc	r0, r0
 412:	00 0a       	sbc	r0, r16
 414:	02 0c       	add	r0, r2
 416:	04 0c       	add	r0, r4
 418:	06 0c       	add	r0, r6
 41a:	08 0c       	add	r0, r8
 41c:	08 0a       	sbc	r0, r24
 41e:	08 08       	sbc	r0, r8
 420:	08 06       	cpc	r0, r24
 422:	06 06       	cpc	r0, r22
 424:	04 06       	cpc	r0, r20
 426:	08 02       	muls	r16, r24
 428:	06 00       	.word	0x0006	; ????
 42a:	04 00       	.word	0x0004	; ????
 42c:	02 00       	.word	0x0002	; ????
 42e:	11 00       	.word	0x0011	; ????
 430:	00 00       	nop
 432:	02 00       	.word	0x0002	; ????
 434:	04 00       	.word	0x0004	; ????
 436:	06 00       	.word	0x0006	; ????
 438:	08 00       	.word	0x0008	; ????
 43a:	0a 00       	.word	0x000a	; ????
 43c:	0c 02       	muls	r16, r28
 43e:	06 04       	cpc	r0, r6
 440:	06 06       	cpc	r0, r22
 442:	06 08       	sbc	r0, r6
 444:	06 08       	sbc	r0, r6
 446:	04 08       	sbc	r0, r4
 448:	02 08       	sbc	r0, r2
 44a:	00 08       	sbc	r0, r0
 44c:	08 08       	sbc	r0, r8
 44e:	0a 08       	sbc	r0, r10
 450:	0c 0b       	sbc	r16, r28
 452:	02 00       	.word	0x0002	; ????
 454:	04 00       	.word	0x0004	; ????
 456:	04 02       	muls	r16, r20
 458:	04 04       	cpc	r0, r4
 45a:	04 06       	cpc	r0, r20
 45c:	04 08       	sbc	r0, r4
 45e:	04 0a       	sbc	r0, r20
 460:	04 0c       	add	r0, r4
 462:	02 0c       	add	r0, r2
 464:	06 0c       	add	r0, r6
 466:	06 00       	.word	0x0006	; ????
 468:	0b 00       	.word	0x000b	; ????
 46a:	0a 02       	muls	r16, r26
 46c:	0c 04       	cpc	r0, r12
 46e:	0c 06       	cpc	r0, r28
 470:	0a 06       	cpc	r0, r26
 472:	08 06       	cpc	r0, r24
 474:	06 06       	cpc	r0, r22
 476:	04 06       	cpc	r0, r20
 478:	02 06       	cpc	r0, r18
 47a:	00 04       	cpc	r0, r0
 47c:	00 08       	sbc	r0, r0
 47e:	00 0e       	add	r0, r16
 480:	00 00       	nop
 482:	00 02       	muls	r16, r16
 484:	00 04       	cpc	r0, r0
 486:	00 06       	cpc	r0, r16
 488:	00 08       	sbc	r0, r0
 48a:	00 0a       	sbc	r0, r16
 48c:	00 0c       	add	r0, r0
 48e:	04 08       	sbc	r0, r4
 490:	02 06       	cpc	r0, r18
 492:	04 04       	cpc	r0, r4
 494:	06 02       	muls	r16, r22
 496:	08 00       	.word	0x0008	; ????
 498:	06 0a       	sbc	r0, r22
 49a:	08 0c       	add	r0, r8
 49c:	0b 00       	.word	0x000b	; ????
 49e:	00 00       	nop
 4a0:	02 00       	.word	0x0002	; ????
 4a2:	04 00       	.word	0x0004	; ????
 4a4:	06 00       	.word	0x0006	; ????
 4a6:	08 00       	.word	0x0008	; ????
 4a8:	0a 00       	.word	0x000a	; ????
 4aa:	0c 02       	muls	r16, r28
 4ac:	0c 04       	cpc	r0, r12
 4ae:	0c 06       	cpc	r0, r28
 4b0:	0c 08       	sbc	r0, r12
 4b2:	0c 12       	cpse	r0, r28
 4b4:	00 00       	nop
 4b6:	00 02       	muls	r16, r16
 4b8:	00 04       	cpc	r0, r0
 4ba:	00 06       	cpc	r0, r16
 4bc:	00 08       	sbc	r0, r0
 4be:	00 0a       	sbc	r0, r16
 4c0:	00 0c       	add	r0, r0
 4c2:	04 06       	cpc	r0, r20
 4c4:	04 04       	cpc	r0, r4
 4c6:	02 02       	muls	r16, r18
 4c8:	06 02       	muls	r16, r22
 4ca:	08 02       	muls	r16, r24
 4cc:	08 00       	.word	0x0008	; ????
 4ce:	08 04       	cpc	r0, r8
 4d0:	08 06       	cpc	r0, r24
 4d2:	08 08       	sbc	r0, r8
 4d4:	08 0a       	sbc	r0, r24
 4d6:	08 0c       	add	r0, r8
 4d8:	11 00       	.word	0x0011	; ????
 4da:	00 00       	nop
 4dc:	02 00       	.word	0x0002	; ????
 4de:	04 00       	.word	0x0004	; ????
 4e0:	06 00       	.word	0x0006	; ????
 4e2:	08 00       	.word	0x0008	; ????
 4e4:	0a 00       	.word	0x000a	; ????
 4e6:	0c 04       	cpc	r0, r12
 4e8:	06 02       	muls	r16, r22
 4ea:	04 06       	cpc	r0, r20
 4ec:	08 08       	sbc	r0, r8
 4ee:	08 08       	sbc	r0, r8
 4f0:	06 08       	sbc	r0, r6
 4f2:	04 08       	sbc	r0, r4
 4f4:	02 08       	sbc	r0, r2
 4f6:	00 08       	sbc	r0, r0
 4f8:	0a 08       	sbc	r0, r10
 4fa:	0c 10       	cpse	r0, r12
 4fc:	00 02       	muls	r16, r16
 4fe:	00 04       	cpc	r0, r0
 500:	00 06       	cpc	r0, r16
 502:	00 08       	sbc	r0, r0
 504:	00 0a       	sbc	r0, r16
 506:	02 0c       	add	r0, r2
 508:	04 0c       	add	r0, r4
 50a:	06 0c       	add	r0, r6
 50c:	08 0a       	sbc	r0, r24
 50e:	08 08       	sbc	r0, r8
 510:	08 06       	cpc	r0, r24
 512:	08 04       	cpc	r0, r8
 514:	08 02       	muls	r16, r24
 516:	06 00       	.word	0x0006	; ????
 518:	04 00       	.word	0x0004	; ????
 51a:	02 00       	.word	0x0002	; ????
 51c:	0f 00       	.word	0x000f	; ????
 51e:	00 00       	nop
 520:	02 00       	.word	0x0002	; ????
 522:	04 00       	.word	0x0004	; ????
 524:	06 00       	.word	0x0006	; ????
 526:	08 00       	.word	0x0008	; ????
 528:	0a 00       	.word	0x000a	; ????
 52a:	0c 02       	muls	r16, r28
 52c:	06 04       	cpc	r0, r6
 52e:	06 06       	cpc	r0, r22
 530:	06 08       	sbc	r0, r6
 532:	04 08       	sbc	r0, r4
 534:	02 06       	cpc	r0, r18
 536:	00 04       	cpc	r0, r0
 538:	00 02       	muls	r16, r16
 53a:	00 11       	cpse	r16, r0
 53c:	00 02       	muls	r16, r16
 53e:	00 04       	cpc	r0, r0
 540:	00 06       	cpc	r0, r16
 542:	00 08       	sbc	r0, r0
 544:	00 0a       	sbc	r0, r16
 546:	02 0c       	add	r0, r2
 548:	04 0c       	add	r0, r4
 54a:	06 0a       	sbc	r0, r22
 54c:	04 08       	sbc	r0, r4
 54e:	08 08       	sbc	r0, r8
 550:	08 06       	cpc	r0, r24
 552:	08 04       	cpc	r0, r8
 554:	08 02       	muls	r16, r24
 556:	06 00       	.word	0x0006	; ????
 558:	04 00       	.word	0x0004	; ????
 55a:	02 00       	.word	0x0002	; ????
 55c:	08 0c       	add	r0, r8
 55e:	12 00       	.word	0x0012	; ????
 560:	00 00       	nop
 562:	02 00       	.word	0x0002	; ????
 564:	04 00       	.word	0x0004	; ????
 566:	06 00       	.word	0x0006	; ????
 568:	08 00       	.word	0x0008	; ????
 56a:	0a 00       	.word	0x000a	; ????
 56c:	0c 04       	cpc	r0, r12
 56e:	08 04       	cpc	r0, r8
 570:	06 02       	muls	r16, r22
 572:	06 06       	cpc	r0, r22
 574:	06 08       	sbc	r0, r6
 576:	04 08       	sbc	r0, r4
 578:	02 06       	cpc	r0, r18
 57a:	00 04       	cpc	r0, r0
 57c:	00 02       	muls	r16, r16
 57e:	00 06       	cpc	r0, r16
 580:	0a 08       	sbc	r0, r10
 582:	0c 0f       	add	r16, r28
 584:	00 02       	muls	r16, r16
 586:	00 04       	cpc	r0, r0
 588:	02 06       	cpc	r0, r18
 58a:	04 06       	cpc	r0, r20
 58c:	06 06       	cpc	r0, r22
 58e:	08 08       	sbc	r0, r8
 590:	08 0a       	sbc	r0, r24
 592:	06 0c       	add	r0, r6
 594:	04 0c       	add	r0, r4
 596:	02 0c       	add	r0, r2
 598:	00 0c       	add	r0, r0
 59a:	02 00       	.word	0x0002	; ????
 59c:	04 00       	.word	0x0004	; ????
 59e:	06 00       	.word	0x0006	; ????
 5a0:	08 00       	.word	0x0008	; ????
 5a2:	0b 00       	.word	0x000b	; ????
 5a4:	00 02       	muls	r16, r16
 5a6:	00 04       	cpc	r0, r0
 5a8:	00 04       	cpc	r0, r0
 5aa:	02 04       	cpc	r0, r2
 5ac:	04 04       	cpc	r0, r4
 5ae:	06 04       	cpc	r0, r6
 5b0:	08 04       	cpc	r0, r8
 5b2:	0a 04       	cpc	r0, r10
 5b4:	0c 06       	cpc	r0, r28
 5b6:	00 08       	sbc	r0, r0
 5b8:	00 0f       	add	r16, r16
 5ba:	00 00       	nop
 5bc:	00 02       	muls	r16, r16
 5be:	00 04       	cpc	r0, r0
 5c0:	00 06       	cpc	r0, r16
 5c2:	00 08       	sbc	r0, r0
 5c4:	00 0a       	sbc	r0, r16
 5c6:	02 0c       	add	r0, r2
 5c8:	04 0c       	add	r0, r4
 5ca:	06 0c       	add	r0, r6
 5cc:	08 0a       	sbc	r0, r24
 5ce:	08 08       	sbc	r0, r8
 5d0:	08 06       	cpc	r0, r24
 5d2:	08 04       	cpc	r0, r8
 5d4:	08 02       	muls	r16, r24
 5d6:	08 00       	.word	0x0008	; ????
 5d8:	0d 00       	.word	0x000d	; ????
 5da:	00 00       	nop
 5dc:	02 00       	.word	0x0002	; ????
 5de:	04 00       	.word	0x0004	; ????
 5e0:	06 00       	.word	0x0006	; ????
 5e2:	08 02       	muls	r16, r24
 5e4:	0a 04       	cpc	r0, r10
 5e6:	0c 06       	cpc	r0, r28
 5e8:	0a 08       	sbc	r0, r10
 5ea:	08 08       	sbc	r0, r8
 5ec:	06 08       	sbc	r0, r6
 5ee:	04 08       	sbc	r0, r4
 5f0:	02 08       	sbc	r0, r2
 5f2:	00 11       	cpse	r16, r0
 5f4:	00 00       	nop
 5f6:	00 02       	muls	r16, r16
 5f8:	00 04       	cpc	r0, r0
 5fa:	00 06       	cpc	r0, r16
 5fc:	00 08       	sbc	r0, r0
 5fe:	00 0a       	sbc	r0, r16
 600:	02 0c       	add	r0, r2
 602:	04 0a       	sbc	r0, r20
 604:	04 08       	sbc	r0, r4
 606:	04 06       	cpc	r0, r20
 608:	08 06       	cpc	r0, r24
 60a:	08 04       	cpc	r0, r8
 60c:	08 02       	muls	r16, r24
 60e:	08 00       	.word	0x0008	; ????
 610:	08 08       	sbc	r0, r8
 612:	08 0a       	sbc	r0, r24
 614:	06 0c       	add	r0, r6
 616:	0d 00       	.word	0x000d	; ????
 618:	00 00       	nop
 61a:	02 02       	muls	r16, r18
 61c:	04 04       	cpc	r0, r4
 61e:	06 02       	muls	r16, r22
 620:	08 00       	.word	0x0008	; ????
 622:	0a 00       	.word	0x000a	; ????
 624:	0c 06       	cpc	r0, r28
 626:	08 08       	sbc	r0, r8
 628:	0a 08       	sbc	r0, r10
 62a:	0c 06       	cpc	r0, r28
 62c:	04 08       	sbc	r0, r4
 62e:	02 08       	sbc	r0, r2
 630:	00 0b       	sbc	r16, r16
 632:	00 00       	nop
 634:	00 02       	muls	r16, r16
 636:	00 04       	cpc	r0, r0
 638:	02 06       	cpc	r0, r18
 63a:	04 08       	sbc	r0, r4
 63c:	04 0a       	sbc	r0, r20
 63e:	04 0c       	add	r0, r4
 640:	06 06       	cpc	r0, r22
 642:	08 04       	cpc	r0, r8
 644:	08 02       	muls	r16, r24
 646:	08 00       	.word	0x0008	; ????
 648:	0f 00       	.word	0x000f	; ????
 64a:	00 02       	muls	r16, r16
 64c:	00 04       	cpc	r0, r0
 64e:	00 06       	cpc	r0, r16
 650:	00 08       	sbc	r0, r0
 652:	00 08       	sbc	r0, r0
 654:	02 06       	cpc	r0, r18
 656:	04 04       	cpc	r0, r4
 658:	06 02       	muls	r16, r22
 65a:	08 00       	.word	0x0008	; ????
 65c:	0a 00       	.word	0x000a	; ????
 65e:	0c 02       	muls	r16, r28
 660:	0c 04       	cpc	r0, r12
 662:	0c 06       	cpc	r0, r28
 664:	0c 08       	sbc	r0, r12
 666:	0c 0b       	sbc	r16, r28
 668:	02 00       	.word	0x0002	; ????
 66a:	02 02       	muls	r16, r18
 66c:	02 04       	cpc	r0, r2
 66e:	02 06       	cpc	r0, r18
 670:	02 08       	sbc	r0, r2
 672:	02 0a       	sbc	r0, r18
 674:	02 0c       	add	r0, r2
 676:	04 0c       	add	r0, r4
 678:	06 0c       	add	r0, r6
 67a:	06 00       	.word	0x0006	; ????
 67c:	04 00       	.word	0x0004	; ????
 67e:	05 00       	.word	0x0005	; ????
 680:	02 02       	muls	r16, r18
 682:	04 04       	cpc	r0, r4
 684:	06 06       	cpc	r0, r22
 686:	08 08       	sbc	r0, r8
 688:	0a 0b       	sbc	r16, r26
 68a:	02 00       	.word	0x0002	; ????
 68c:	04 00       	.word	0x0004	; ????
 68e:	06 00       	.word	0x0006	; ????
 690:	06 02       	muls	r16, r22
 692:	06 04       	cpc	r0, r6
 694:	06 06       	cpc	r0, r22
 696:	06 08       	sbc	r0, r6
 698:	06 0a       	sbc	r0, r22
 69a:	06 0c       	add	r0, r6
 69c:	04 0c       	add	r0, r4
 69e:	02 0c       	add	r0, r2
 6a0:	05 00       	.word	0x0005	; ????
 6a2:	04 02       	muls	r16, r20
 6a4:	02 04       	cpc	r0, r2
 6a6:	00 06       	cpc	r0, r16
 6a8:	02 08       	sbc	r0, r2
 6aa:	04 05       	cpc	r16, r4
 6ac:	00 0c       	add	r0, r0
 6ae:	02 0c       	add	r0, r2
 6b0:	04 0c       	add	r0, r4
 6b2:	06 0c       	add	r0, r6
 6b4:	08 0c       	add	r0, r8
 6b6:	03 02       	muls	r16, r19
 6b8:	00 04       	cpc	r0, r0
 6ba:	02 06       	cpc	r0, r18
 6bc:	04 0e       	add	r0, r20
 6be:	00 0a       	sbc	r0, r16
 6c0:	02 08       	sbc	r0, r2
 6c2:	04 08       	sbc	r0, r4
 6c4:	06 08       	sbc	r0, r6
 6c6:	08 08       	sbc	r0, r8
 6c8:	08 06       	cpc	r0, r24
 6ca:	06 04       	cpc	r0, r6
 6cc:	04 04       	cpc	r0, r4
 6ce:	02 04       	cpc	r0, r2
 6d0:	02 0c       	add	r0, r2
 6d2:	04 0c       	add	r0, r4
 6d4:	06 0c       	add	r0, r6
 6d6:	08 0c       	add	r0, r8
 6d8:	08 0a       	sbc	r0, r24
 6da:	10 00       	.word	0x0010	; ????
 6dc:	00 00       	nop
 6de:	02 00       	.word	0x0002	; ????
 6e0:	04 00       	.word	0x0004	; ????
 6e2:	06 00       	.word	0x0006	; ????
 6e4:	08 00       	.word	0x0008	; ????
 6e6:	0a 00       	.word	0x000a	; ????
 6e8:	0c 02       	muls	r16, r28
 6ea:	0c 04       	cpc	r0, r12
 6ec:	0c 06       	cpc	r0, r28
 6ee:	0c 08       	sbc	r0, r12
 6f0:	0a 08       	sbc	r0, r10
 6f2:	08 08       	sbc	r0, r8
 6f4:	06 06       	cpc	r0, r22
 6f6:	04 04       	cpc	r0, r4
 6f8:	04 02       	muls	r16, r20
 6fa:	06 0a       	sbc	r0, r22
 6fc:	00 06       	cpc	r0, r16
 6fe:	00 08       	sbc	r0, r0
 700:	00 0a       	sbc	r0, r16
 702:	02 0c       	add	r0, r2
 704:	04 0c       	add	r0, r4
 706:	06 0c       	add	r0, r6
 708:	08 0a       	sbc	r0, r24
 70a:	06 04       	cpc	r0, r6
 70c:	04 04       	cpc	r0, r4
 70e:	02 04       	cpc	r0, r2
 710:	10 00       	.word	0x0010	; ????
 712:	06 00       	.word	0x0006	; ????
 714:	08 00       	.word	0x0008	; ????
 716:	0a 02       	muls	r16, r26
 718:	0c 04       	cpc	r0, r12
 71a:	0c 06       	cpc	r0, r28
 71c:	0c 08       	sbc	r0, r12
 71e:	0c 08       	sbc	r0, r12
 720:	0a 08       	sbc	r0, r10
 722:	08 08       	sbc	r0, r8
 724:	06 06       	cpc	r0, r22
 726:	06 04       	cpc	r0, r6
 728:	04 02       	muls	r16, r20
 72a:	04 08       	sbc	r0, r4
 72c:	04 08       	sbc	r0, r4
 72e:	02 08       	sbc	r0, r2
 730:	00 0e       	add	r0, r16
 732:	00 06       	cpc	r0, r16
 734:	00 08       	sbc	r0, r0
 736:	00 0a       	sbc	r0, r16
 738:	02 08       	sbc	r0, r2
 73a:	04 08       	sbc	r0, r4
 73c:	06 08       	sbc	r0, r6
 73e:	08 08       	sbc	r0, r8
 740:	08 06       	cpc	r0, r24
 742:	06 04       	cpc	r0, r6
 744:	04 04       	cpc	r0, r4
 746:	02 04       	cpc	r0, r2
 748:	02 0c       	add	r0, r2
 74a:	04 0c       	add	r0, r4
 74c:	06 0c       	add	r0, r6
 74e:	0b 00       	.word	0x000b	; ????
 750:	06 02       	muls	r16, r22
 752:	06 02       	muls	r16, r22
 754:	04 02       	muls	r16, r20
 756:	02 04       	cpc	r0, r2
 758:	00 06       	cpc	r0, r16
 75a:	00 08       	sbc	r0, r0
 75c:	02 04       	cpc	r0, r2
 75e:	06 02       	muls	r16, r22
 760:	08 02       	muls	r16, r24
 762:	0a 02       	muls	r16, r26
 764:	0c 10       	cpse	r0, r12
 766:	00 04       	cpc	r0, r0
 768:	00 06       	cpc	r0, r16
 76a:	02 08       	sbc	r0, r2
 76c:	04 08       	sbc	r0, r4
 76e:	06 08       	sbc	r0, r6
 770:	08 08       	sbc	r0, r8
 772:	08 06       	cpc	r0, r24
 774:	08 04       	cpc	r0, r8
 776:	08 02       	muls	r16, r24
 778:	06 02       	muls	r16, r22
 77a:	04 02       	muls	r16, r20
 77c:	02 02       	muls	r16, r18
 77e:	02 0c       	add	r0, r2
 780:	04 0c       	add	r0, r4
 782:	06 0c       	add	r0, r6
 784:	08 0a       	sbc	r0, r24
 786:	0e 00       	.word	0x000e	; ????
 788:	00 00       	nop
 78a:	02 00       	.word	0x0002	; ????
 78c:	04 00       	.word	0x0004	; ????
 78e:	06 00       	.word	0x0006	; ????
 790:	08 00       	.word	0x0008	; ????
 792:	0a 00       	.word	0x000a	; ????
 794:	0c 02       	muls	r16, r28
 796:	06 04       	cpc	r0, r6
 798:	04 06       	cpc	r0, r20
 79a:	04 08       	sbc	r0, r4
 79c:	06 08       	sbc	r0, r6
 79e:	08 08       	sbc	r0, r8
 7a0:	0a 08       	sbc	r0, r10
 7a2:	0c 09       	sbc	r16, r12
 7a4:	02 04       	cpc	r0, r2
 7a6:	04 04       	cpc	r0, r4
 7a8:	04 06       	cpc	r0, r20
 7aa:	04 08       	sbc	r0, r4
 7ac:	04 0a       	sbc	r0, r20
 7ae:	04 0c       	add	r0, r4
 7b0:	02 0c       	add	r0, r2
 7b2:	06 0c       	add	r0, r6
 7b4:	04 00       	.word	0x0004	; ????
 7b6:	09 00       	.word	0x0009	; ????
 7b8:	0a 02       	muls	r16, r26
 7ba:	0c 04       	cpc	r0, r12
 7bc:	0c 06       	cpc	r0, r28
 7be:	0a 06       	cpc	r0, r26
 7c0:	08 06       	cpc	r0, r24
 7c2:	06 06       	cpc	r0, r22
 7c4:	04 04       	cpc	r0, r4
 7c6:	04 06       	cpc	r0, r20
 7c8:	00 0c       	add	r0, r0
 7ca:	00 00       	nop
 7cc:	00 02       	muls	r16, r16
 7ce:	00 04       	cpc	r0, r0
 7d0:	00 06       	cpc	r0, r16
 7d2:	00 08       	sbc	r0, r0
 7d4:	00 0a       	sbc	r0, r16
 7d6:	00 0c       	add	r0, r0
 7d8:	02 08       	sbc	r0, r2
 7da:	04 06       	cpc	r0, r20
 7dc:	06 04       	cpc	r0, r6
 7de:	04 0a       	sbc	r0, r20
 7e0:	06 0c       	add	r0, r6
 7e2:	0a 02       	muls	r16, r26
 7e4:	00 04       	cpc	r0, r0
 7e6:	00 04       	cpc	r0, r0
 7e8:	02 04       	cpc	r0, r2
 7ea:	04 04       	cpc	r0, r4
 7ec:	06 04       	cpc	r0, r6
 7ee:	08 04       	cpc	r0, r8
 7f0:	0a 04       	cpc	r0, r10
 7f2:	0c 02       	muls	r16, r28
 7f4:	0c 06       	cpc	r0, r28
 7f6:	0c 0d       	add	r16, r12
 7f8:	00 04       	cpc	r0, r0
 7fa:	00 06       	cpc	r0, r16
 7fc:	00 08       	sbc	r0, r0
 7fe:	00 0a       	sbc	r0, r16
 800:	00 0c       	add	r0, r0
 802:	04 08       	sbc	r0, r4
 804:	04 06       	cpc	r0, r20
 806:	02 04       	cpc	r0, r2
 808:	06 04       	cpc	r0, r6
 80a:	08 06       	cpc	r0, r24
 80c:	08 08       	sbc	r0, r8
 80e:	08 0a       	sbc	r0, r24
 810:	08 0c       	add	r0, r8
 812:	0c 00       	.word	0x000c	; ????
 814:	04 00       	.word	0x0004	; ????
 816:	06 00       	.word	0x0006	; ????
 818:	08 00       	.word	0x0008	; ????
 81a:	0a 00       	.word	0x000a	; ????
 81c:	0c 02       	muls	r16, r28
 81e:	06 04       	cpc	r0, r6
 820:	04 06       	cpc	r0, r20
 822:	04 08       	sbc	r0, r4
 824:	06 08       	sbc	r0, r6
 826:	08 08       	sbc	r0, r8
 828:	0a 08       	sbc	r0, r10
 82a:	0c 0c       	add	r0, r12
 82c:	00 06       	cpc	r0, r16
 82e:	00 08       	sbc	r0, r0
 830:	00 0a       	sbc	r0, r16
 832:	02 0c       	add	r0, r2
 834:	04 0c       	add	r0, r4
 836:	06 0c       	add	r0, r6
 838:	08 0a       	sbc	r0, r24
 83a:	08 08       	sbc	r0, r8
 83c:	08 06       	cpc	r0, r24
 83e:	06 04       	cpc	r0, r6
 840:	04 04       	cpc	r0, r4
 842:	02 04       	cpc	r0, r2
 844:	0c 00       	.word	0x000c	; ????
 846:	04 00       	.word	0x0004	; ????
 848:	06 00       	.word	0x0006	; ????
 84a:	08 00       	.word	0x0008	; ????
 84c:	0a 00       	.word	0x000a	; ????
 84e:	0c 02       	muls	r16, r28
 850:	08 04       	cpc	r0, r8
 852:	08 06       	cpc	r0, r24
 854:	08 08       	sbc	r0, r8
 856:	06 06       	cpc	r0, r22
 858:	04 04       	cpc	r0, r4
 85a:	04 02       	muls	r16, r20
 85c:	04 0c       	add	r0, r4
 85e:	00 06       	cpc	r0, r16
 860:	02 04       	cpc	r0, r2
 862:	04 04       	cpc	r0, r4
 864:	06 06       	cpc	r0, r22
 866:	06 08       	sbc	r0, r6
 868:	04 08       	sbc	r0, r4
 86a:	02 08       	sbc	r0, r2
 86c:	08 08       	sbc	r0, r8
 86e:	08 06       	cpc	r0, r24
 870:	08 04       	cpc	r0, r8
 872:	08 0a       	sbc	r0, r24
 874:	08 0c       	add	r0, r8
 876:	09 00       	.word	0x0009	; ????
 878:	04 00       	.word	0x0004	; ????
 87a:	06 00       	.word	0x0006	; ????
 87c:	08 00       	.word	0x0008	; ????
 87e:	0a 00       	.word	0x000a	; ????
 880:	0c 02       	muls	r16, r28
 882:	06 04       	cpc	r0, r6
 884:	04 06       	cpc	r0, r20
 886:	04 08       	sbc	r0, r4
 888:	06 0c       	add	r0, r6
 88a:	00 06       	cpc	r0, r16
 88c:	02 04       	cpc	r0, r2
 88e:	04 04       	cpc	r0, r4
 890:	06 04       	cpc	r0, r6
 892:	06 08       	sbc	r0, r6
 894:	04 08       	sbc	r0, r4
 896:	02 08       	sbc	r0, r2
 898:	02 0c       	add	r0, r2
 89a:	00 0c       	add	r0, r0
 89c:	04 0c       	add	r0, r4
 89e:	06 0c       	add	r0, r6
 8a0:	08 0a       	sbc	r0, r24
 8a2:	0b 00       	.word	0x000b	; ????
 8a4:	04 02       	muls	r16, r20
 8a6:	04 02       	muls	r16, r20
 8a8:	02 02       	muls	r16, r18
 8aa:	00 04       	cpc	r0, r0
 8ac:	04 02       	muls	r16, r20
 8ae:	06 02       	muls	r16, r22
 8b0:	08 02       	muls	r16, r24
 8b2:	0a 04       	cpc	r0, r10
 8b4:	0c 06       	cpc	r0, r28
 8b6:	0c 08       	sbc	r0, r12
 8b8:	0a 0c       	add	r0, r10
 8ba:	00 04       	cpc	r0, r0
 8bc:	00 06       	cpc	r0, r16
 8be:	00 08       	sbc	r0, r0
 8c0:	00 0a       	sbc	r0, r16
 8c2:	02 0c       	add	r0, r2
 8c4:	04 0c       	add	r0, r4
 8c6:	06 0a       	sbc	r0, r22
 8c8:	08 0a       	sbc	r0, r24
 8ca:	08 08       	sbc	r0, r8
 8cc:	08 06       	cpc	r0, r24
 8ce:	08 04       	cpc	r0, r8
 8d0:	08 0c       	add	r0, r8
 8d2:	09 00       	.word	0x0009	; ????
 8d4:	04 00       	.word	0x0004	; ????
 8d6:	06 00       	.word	0x0006	; ????
 8d8:	08 02       	muls	r16, r24
 8da:	0a 04       	cpc	r0, r10
 8dc:	0c 06       	cpc	r0, r28
 8de:	0a 08       	sbc	r0, r10
 8e0:	08 08       	sbc	r0, r8
 8e2:	06 08       	sbc	r0, r6
 8e4:	04 0c       	add	r0, r4
 8e6:	00 04       	cpc	r0, r0
 8e8:	00 06       	cpc	r0, r16
 8ea:	00 08       	sbc	r0, r0
 8ec:	00 0a       	sbc	r0, r16
 8ee:	02 0c       	add	r0, r2
 8f0:	04 0a       	sbc	r0, r20
 8f2:	04 08       	sbc	r0, r4
 8f4:	08 08       	sbc	r0, r8
 8f6:	08 06       	cpc	r0, r24
 8f8:	08 04       	cpc	r0, r8
 8fa:	08 0a       	sbc	r0, r24
 8fc:	06 0c       	add	r0, r6
 8fe:	09 00       	.word	0x0009	; ????
 900:	04 02       	muls	r16, r20
 902:	06 04       	cpc	r0, r6
 904:	08 02       	muls	r16, r24
 906:	0a 00       	.word	0x000a	; ????
 908:	0c 06       	cpc	r0, r28
 90a:	0a 08       	sbc	r0, r10
 90c:	0c 06       	cpc	r0, r28
 90e:	06 08       	sbc	r0, r6
 910:	04 0c       	add	r0, r4
 912:	00 04       	cpc	r0, r0
 914:	00 06       	cpc	r0, r16
 916:	02 08       	sbc	r0, r2
 918:	04 08       	sbc	r0, r4
 91a:	06 08       	sbc	r0, r6
 91c:	08 08       	sbc	r0, r8
 91e:	08 06       	cpc	r0, r24
 920:	08 04       	cpc	r0, r8
 922:	08 0a       	sbc	r0, r24
 924:	06 0c       	add	r0, r6
 926:	04 0c       	add	r0, r4
 928:	02 0c       	add	r0, r2
 92a:	0d 00       	.word	0x000d	; ????
 92c:	04 02       	muls	r16, r20
 92e:	04 04       	cpc	r0, r4
 930:	04 06       	cpc	r0, r20
 932:	04 06       	cpc	r0, r20
 934:	06 04       	cpc	r0, r6
 936:	08 02       	muls	r16, r24
 938:	0a 02       	muls	r16, r26
 93a:	0c 00       	.word	0x000c	; ????
 93c:	0c 04       	cpc	r0, r12
 93e:	0c 06       	cpc	r0, r28
 940:	0c 08       	sbc	r0, r12
 942:	0c 08       	sbc	r0, r12
 944:	04 07       	cpc	r16, r20
 946:	02 06       	cpc	r0, r18
 948:	04 04       	cpc	r0, r4
 94a:	04 02       	muls	r16, r20
 94c:	06 00       	.word	0x0006	; ????
 94e:	04 08       	sbc	r0, r4
 950:	04 0a       	sbc	r0, r20
 952:	06 0c       	add	r0, r6
 954:	07 04       	cpc	r0, r7
 956:	00 04       	cpc	r0, r0
 958:	02 04       	cpc	r0, r2
 95a:	04 04       	cpc	r0, r4
 95c:	06 04       	cpc	r0, r6
 95e:	08 04       	cpc	r0, r8
 960:	0a 04       	cpc	r0, r10
 962:	0c 07       	cpc	r16, r28
 964:	02 00       	.word	0x0002	; ????
 966:	04 02       	muls	r16, r20
 968:	04 04       	cpc	r0, r4
 96a:	06 06       	cpc	r0, r22
 96c:	04 08       	sbc	r0, r4
 96e:	04 0a       	sbc	r0, r20
 970:	02 0c       	add	r0, r2
 972:	05 00       	.word	0x0005	; ????
 974:	08 02       	muls	r16, r24
 976:	06 04       	cpc	r0, r6
 978:	06 06       	cpc	r0, r22
 97a:	08 08       	sbc	r0, r8
 97c:	06 00       	.word	0x0006	; ????

0000097e <__ctors_end>:
 97e:	11 24       	eor	r1, r1
 980:	1f be       	out	0x3f, r1	; 63
 982:	cf ef       	ldi	r28, 0xFF	; 255
 984:	d8 e0       	ldi	r29, 0x08	; 8
 986:	de bf       	out	0x3e, r29	; 62
 988:	cd bf       	out	0x3d, r28	; 61

0000098a <__do_copy_data>:
 98a:	11 e0       	ldi	r17, 0x01	; 1
 98c:	a0 e0       	ldi	r26, 0x00	; 0
 98e:	b1 e0       	ldi	r27, 0x01	; 1
 990:	ec ec       	ldi	r30, 0xCC	; 204
 992:	fa e0       	ldi	r31, 0x0A	; 10
 994:	02 c0       	rjmp	.+4      	; 0x99a <__do_copy_data+0x10>
 996:	05 90       	lpm	r0, Z+
 998:	0d 92       	st	X+, r0
 99a:	aa 3c       	cpi	r26, 0xCA	; 202
 99c:	b1 07       	cpc	r27, r17
 99e:	d9 f7       	brne	.-10     	; 0x996 <__do_copy_data+0xc>
 9a0:	0e 94 5b 05 	call	0xab6	; 0xab6 <main>
 9a4:	0c 94 64 05 	jmp	0xac8	; 0xac8 <_exit>

000009a8 <__bad_interrupt>:
 9a8:	0c 94 00 00 	jmp	0	; 0x0 <__vectors>

000009ac <_Z8spi_initv>:
 */ 

#include "main.h"

void spi_init() {
	DDRB_SPI_INIT;
 9ac:	84 b1       	in	r24, 0x04	; 4
 9ae:	8c 62       	ori	r24, 0x2C	; 44
 9b0:	84 b9       	out	0x04, r24	; 4
	
	SPCR =  (1 << SPE) | (0 << DORD) | (1 << MSTR) | (0 << CPOL) | (0 << CPHA) | (1 << SPR1) | (0 << SPR0);
 9b2:	82 e5       	ldi	r24, 0x52	; 82
 9b4:	8c bd       	out	0x2c, r24	; 44
	SPSR = (0 << SPI2X);
 9b6:	1d bc       	out	0x2d, r1	; 45
	SPDR = 0x00;
 9b8:	1e bc       	out	0x2e, r1	; 46
 9ba:	08 95       	ret

000009bc <_Z9spi_writeh>:
}

void spi_write(unsigned char data) {
	SPDR = data;
 9bc:	8e bd       	out	0x2e, r24	; 46
	while (!(SPSR & (1 << SPIF)));
 9be:	0d b4       	in	r0, 0x2d	; 45
 9c0:	07 fe       	sbrs	r0, 7
 9c2:	fd cf       	rjmp	.-6      	; 0x9be <_Z9spi_writeh+0x2>
}
 9c4:	08 95       	ret

000009c6 <_Z6sendxyhh>:

void sendxy(unsigned char x, unsigned char y) {
 9c6:	cf 93       	push	r28
 9c8:	c8 2f       	mov	r28, r24
 9ca:	86 2f       	mov	r24, r22
	spi_write(y);
 9cc:	0e 94 de 04 	call	0x9bc	; 0x9bc <_Z9spi_writeh>
	spi_write(x);
 9d0:	8c 2f       	mov	r24, r28
 9d2:	0e 94 de 04 	call	0x9bc	; 0x9bc <_Z9spi_writeh>
	_74HC595_LATCH;
 9d6:	85 b1       	in	r24, 0x05	; 5
 9d8:	8b 7f       	andi	r24, 0xFB	; 251
 9da:	85 b9       	out	0x05, r24	; 5
 9dc:	85 b1       	in	r24, 0x05	; 5
 9de:	84 60       	ori	r24, 0x04	; 4
 9e0:	85 b9       	out	0x05, r24	; 5
}
 9e2:	cf 91       	pop	r28
 9e4:	08 95       	ret

000009e6 <_Z13crt_send_charhhh>:


void crt_send_char(uint8_t chr, uint8_t x, uint8_t y){
 9e6:	df 92       	push	r13
 9e8:	ef 92       	push	r14
 9ea:	ff 92       	push	r15
 9ec:	0f 93       	push	r16
 9ee:	1f 93       	push	r17
 9f0:	cf 93       	push	r28
 9f2:	df 93       	push	r29
 9f4:	f6 2e       	mov	r15, r22
 9f6:	e4 2e       	mov	r14, r20
	unsigned char c = (chr < 0xe0) ? chr - 0x20 : chr - 0x50;
 9f8:	80 3e       	cpi	r24, 0xE0	; 224
 9fa:	10 f4       	brcc	.+4      	; 0xa00 <_Z13crt_send_charhhh+0x1a>
 9fc:	80 52       	subi	r24, 0x20	; 32
 9fe:	01 c0       	rjmp	.+2      	; 0xa02 <_Z13crt_send_charhhh+0x1c>
 a00:	80 55       	subi	r24, 0x50	; 80
	unsigned int offset = 0;
	unsigned char charLen = 0;

	offset = CharsPositions[c];
 a02:	e8 2f       	mov	r30, r24
 a04:	f0 e0       	ldi	r31, 0x00	; 0
 a06:	ee 0f       	add	r30, r30
 a08:	ff 1f       	adc	r31, r31
 a0a:	e0 50       	subi	r30, 0x00	; 0
 a0c:	ff 4f       	sbci	r31, 0xFF	; 255
 a0e:	c0 81       	ld	r28, Z
 a10:	d1 81       	ldd	r29, Z+1	; 0x01
	charLen = pgm_read_byte(&Font[offset]);
 a12:	fe 01       	movw	r30, r28
 a14:	e8 59       	subi	r30, 0x98	; 152
 a16:	ff 4f       	sbci	r31, 0xFF	; 255
 a18:	04 91       	lpm	r16, Z
	offset++;
 a1a:	21 96       	adiw	r28, 0x01	; 1
	
	for(unsigned char j = 0; j < 2; j++) {
 a1c:	d1 2c       	mov	r13, r1
 a1e:	81 e0       	ldi	r24, 0x01	; 1
 a20:	8d 15       	cp	r24, r13
 a22:	c8 f0       	brcs	.+50     	; 0xa56 <_Z13crt_send_charhhh+0x70>
 a24:	10 e0       	ldi	r17, 0x00	; 0
		for(unsigned char i = 0; i < charLen; i++) {
 a26:	10 17       	cp	r17, r16
 a28:	a0 f4       	brcc	.+40     	; 0xa52 <_Z13crt_send_charhhh+0x6c>
			sendxy(pgm_read_byte(&Font[offset + 2 * i]) + x, pgm_read_byte(&Font[offset + 2 * i + 1]) + y);
 a2a:	81 2f       	mov	r24, r17
 a2c:	90 e0       	ldi	r25, 0x00	; 0
 a2e:	88 0f       	add	r24, r24
 a30:	99 1f       	adc	r25, r25
 a32:	8c 0f       	add	r24, r28
 a34:	9d 1f       	adc	r25, r29
 a36:	fc 01       	movw	r30, r24
 a38:	e7 59       	subi	r30, 0x97	; 151
 a3a:	ff 4f       	sbci	r31, 0xFF	; 255
 a3c:	64 91       	lpm	r22, Z
 a3e:	6e 0d       	add	r22, r14
 a40:	fc 01       	movw	r30, r24
 a42:	e8 59       	subi	r30, 0x98	; 152
 a44:	ff 4f       	sbci	r31, 0xFF	; 255
 a46:	84 91       	lpm	r24, Z
 a48:	8f 0d       	add	r24, r15
 a4a:	0e 94 e3 04 	call	0x9c6	; 0x9c6 <_Z6sendxyhh>
	offset = CharsPositions[c];
	charLen = pgm_read_byte(&Font[offset]);
	offset++;
	
	for(unsigned char j = 0; j < 2; j++) {
		for(unsigned char i = 0; i < charLen; i++) {
 a4e:	1f 5f       	subi	r17, 0xFF	; 255
 a50:	ea cf       	rjmp	.-44     	; 0xa26 <_Z13crt_send_charhhh+0x40>

	offset = CharsPositions[c];
	charLen = pgm_read_byte(&Font[offset]);
	offset++;
	
	for(unsigned char j = 0; j < 2; j++) {
 a52:	d3 94       	inc	r13
 a54:	e4 cf       	rjmp	.-56     	; 0xa1e <_Z13crt_send_charhhh+0x38>
		for(unsigned char i = 0; i < charLen; i++) {
			sendxy(pgm_read_byte(&Font[offset + 2 * i]) + x, pgm_read_byte(&Font[offset + 2 * i + 1]) + y);
		}
	}
}
 a56:	df 91       	pop	r29
 a58:	cf 91       	pop	r28
 a5a:	1f 91       	pop	r17
 a5c:	0f 91       	pop	r16
 a5e:	ff 90       	pop	r15
 a60:	ef 90       	pop	r14
 a62:	df 90       	pop	r13
 a64:	08 95       	ret

00000a66 <_Z12crt_send_strPKchh>:


void crt_send_str (const char *str, unsigned char x, unsigned char y) {
 a66:	0f 93       	push	r16
 a68:	1f 93       	push	r17
 a6a:	cf 93       	push	r28
 a6c:	df 93       	push	r29
 a6e:	fc 01       	movw	r30, r24
 a70:	c6 2f       	mov	r28, r22
 a72:	d4 2f       	mov	r29, r20
	while(*str) {
 a74:	80 81       	ld	r24, Z
 a76:	88 23       	and	r24, r24
 a78:	c9 f0       	breq	.+50     	; 0xaac <_Z12crt_send_strPKchh+0x46>
		if((unsigned char) *str == 0xd0 || (unsigned char) *str == 0xd1) str++;
 a7a:	80 5d       	subi	r24, 0xD0	; 208
 a7c:	82 30       	cpi	r24, 0x02	; 2
 a7e:	08 f4       	brcc	.+2      	; 0xa82 <_Z12crt_send_strPKchh+0x1c>
 a80:	31 96       	adiw	r30, 0x01	; 1
		if(*str == '\r'){
 a82:	80 81       	ld	r24, Z
 a84:	8d 30       	cpi	r24, 0x0D	; 13
 a86:	11 f4       	brne	.+4      	; 0xa8c <_Z12crt_send_strPKchh+0x26>
			x = 0;
			str++;
 a88:	31 96       	adiw	r30, 0x01	; 1

void crt_send_str (const char *str, unsigned char x, unsigned char y) {
	while(*str) {
		if((unsigned char) *str == 0xd0 || (unsigned char) *str == 0xd1) str++;
		if(*str == '\r'){
			x = 0;
 a8a:	c0 e0       	ldi	r28, 0x00	; 0
			str++;
		}
		if(*str == '\n') {
 a8c:	80 81       	ld	r24, Z
 a8e:	8a 30       	cpi	r24, 0x0A	; 10
 a90:	11 f4       	brne	.+4      	; 0xa96 <_Z12crt_send_strPKchh+0x30>
			y += 8 * 2;
 a92:	d0 5f       	subi	r29, 0xF0	; 240
			str++;
 a94:	31 96       	adiw	r30, 0x01	; 1
		}
		crt_send_char((unsigned char) *str++, x, y);
 a96:	8f 01       	movw	r16, r30
 a98:	0f 5f       	subi	r16, 0xFF	; 255
 a9a:	1f 4f       	sbci	r17, 0xFF	; 255
 a9c:	4d 2f       	mov	r20, r29
 a9e:	6c 2f       	mov	r22, r28
 aa0:	80 81       	ld	r24, Z
 aa2:	0e 94 f3 04 	call	0x9e6	; 0x9e6 <_Z13crt_send_charhhh>
		x += 6 * 2;
 aa6:	c4 5f       	subi	r28, 0xF4	; 244
		}
		if(*str == '\n') {
			y += 8 * 2;
			str++;
		}
		crt_send_char((unsigned char) *str++, x, y);
 aa8:	f8 01       	movw	r30, r16
	}
}


void crt_send_str (const char *str, unsigned char x, unsigned char y) {
	while(*str) {
 aaa:	e4 cf       	rjmp	.-56     	; 0xa74 <_Z12crt_send_strPKchh+0xe>
			str++;
		}
		crt_send_char((unsigned char) *str++, x, y);
		x += 6 * 2;
	}
}
 aac:	df 91       	pop	r29
 aae:	cf 91       	pop	r28
 ab0:	1f 91       	pop	r17
 ab2:	0f 91       	pop	r16
 ab4:	08 95       	ret

00000ab6 <main>:

int main(void) {
	spi_init();
 ab6:	0e 94 d6 04 	call	0x9ac	; 0x9ac <_Z8spi_initv>

	while (1) {
		crt_send_str("FUCK WORLD!", 10, 10);
 aba:	4a e0       	ldi	r20, 0x0A	; 10
 abc:	6a e0       	ldi	r22, 0x0A	; 10
 abe:	8e eb       	ldi	r24, 0xBE	; 190
 ac0:	91 e0       	ldi	r25, 0x01	; 1
 ac2:	0e 94 33 05 	call	0xa66	; 0xa66 <_Z12crt_send_strPKchh>
 ac6:	f9 cf       	rjmp	.-14     	; 0xaba <main+0x4>

00000ac8 <_exit>:
 ac8:	f8 94       	cli

00000aca <__stop_program>:
 aca:	ff cf       	rjmp	.-2      	; 0xaca <__stop_program>
